target datalayout = "e-m:e-p270:32:32-p271:32:32-p272:64:64-i64:64-i128:128-f80:128-n8:16:32:64-S128"
target triple = "x86_64-pc-linux-gnu"

%struct._zend_array = type { %struct._zend_refcounted_h, %union.anon.0, i32, %union.anon.1, i32, i32, i32, i32, i64, ptr }
%struct._zend_refcounted_h = type { i32, %union.anon }
%union.anon = type { i32 }
%union.anon.0 = type { i32 }
%union.anon.1 = type { ptr }

@uninitialized_bucket = internal constant [2 x i32] [i32 -1, i32 -1], align 4
@.str = private unnamed_addr constant [64 x i8] c"Possible integer overflow in memory allocation (%u * %zu + %zu)\00", align 1

; Function Attrs: nounwind uwtable
define ptr @_zend_new_array(i32 noundef %0) #0 {
  %2 = alloca ptr, align 8
  %3 = alloca i32, align 4
  %4 = alloca i32, align 4
  %5 = alloca i32, align 4
  %6 = alloca ptr, align 8
  %7 = alloca i32, align 4
  %8 = alloca ptr, align 8
  %9 = alloca i8, align 1
  %10 = alloca i32, align 4
  %11 = alloca ptr, align 8
  store i32 %0, ptr %10, align 4
  %12 = call noalias ptr @_emalloc_56()
  store ptr %12, ptr %11, align 8
  %13 = load ptr, ptr %11, align 8
  %14 = load i32, ptr %10, align 4
  store ptr %13, ptr %6, align 8
  store i32 %14, ptr %7, align 4
  store ptr @zval_ptr_dtor, ptr %8, align 8
  store i8 0, ptr %9, align 1
  %15 = load ptr, ptr %6, align 8
  store ptr %15, ptr %2, align 8
  store i32 1, ptr %3, align 4
  %16 = load i32, ptr %3, align 4
  %17 = load ptr, ptr %2, align 8
  store i32 %16, ptr %17, align 4
  %18 = load i8, ptr %9, align 1
  %19 = trunc i8 %18 to i1
  %20 = select i1 %19, i32 144, i32 0
  %21 = or i32 7, %20
  %22 = load ptr, ptr %6, align 8
  %23 = getelementptr inbounds %struct._zend_refcounted_h, ptr %22, i32 0, i32 1
  store i32 %21, ptr %23, align 4
  %24 = load ptr, ptr %6, align 8
  %25 = getelementptr inbounds %struct._zend_array, ptr %24, i32 0, i32 1
  store i32 8, ptr %25, align 8
  %26 = load ptr, ptr %6, align 8
  %27 = getelementptr inbounds %struct._zend_array, ptr %26, i32 0, i32 2
  store i32 -2, ptr %27, align 4
  %28 = load ptr, ptr %6, align 8
  %29 = getelementptr inbounds %struct._zend_array, ptr %28, i32 0, i32 2
  %30 = load i32, ptr %29, align 4
  %31 = sub i32 0, %30
  %32 = zext i32 %31 to i64
  %33 = mul i64 %32, 4
  %34 = getelementptr inbounds i8, ptr @uninitialized_bucket, i64 %33
  %35 = load ptr, ptr %6, align 8
  %36 = getelementptr inbounds %struct._zend_array, ptr %35, i32 0, i32 3
  store ptr %34, ptr %36, align 8
  %37 = load ptr, ptr %6, align 8
  %38 = getelementptr inbounds %struct._zend_array, ptr %37, i32 0, i32 4
  store i32 0, ptr %38, align 8
  %39 = load ptr, ptr %6, align 8
  %40 = getelementptr inbounds %struct._zend_array, ptr %39, i32 0, i32 5
  store i32 0, ptr %40, align 4
  %41 = load ptr, ptr %6, align 8
  %42 = getelementptr inbounds %struct._zend_array, ptr %41, i32 0, i32 7
  store i32 0, ptr %42, align 4
  %43 = load ptr, ptr %6, align 8
  %44 = getelementptr inbounds %struct._zend_array, ptr %43, i32 0, i32 8
  store i64 -9223372036854775808, ptr %44, align 8
  %45 = load ptr, ptr %8, align 8
  %46 = load ptr, ptr %6, align 8
  %47 = getelementptr inbounds %struct._zend_array, ptr %46, i32 0, i32 9
  store ptr %45, ptr %47, align 8
  %48 = load i32, ptr %7, align 4
  store i32 %48, ptr %5, align 4
  %49 = load i32, ptr %5, align 4
  %50 = icmp ule i32 %49, 8
  br i1 %50, label %51, label %52

51:                                               ; preds = %1
  store i32 8, ptr %4, align 4
  br label %63

52:                                               ; preds = %1
  %53 = load i32, ptr %5, align 4
  %54 = icmp ugt i32 %53, 1073741824
  br i1 %54, label %55, label %57

55:                                               ; preds = %52
  %56 = load i32, ptr %5, align 4
  call void (i32, ptr, ...) @zend_error_noreturn(i32 noundef 1, ptr noundef @.str, i32 noundef %56, i64 noundef 32, i64 noundef 32) #16
  unreachable

57:                                               ; preds = %52
  %58 = load i32, ptr %5, align 4
  %59 = sub i32 %58, 1
  %60 = call i32 @llvm.ctlz.i32(i32 %59, i1 true)
  %61 = xor i32 %60, 31
  %62 = shl i32 2, %61
  store i32 %62, ptr %4, align 4
  br label %63

63:                                               ; preds = %57, %51
  %64 = load i32, ptr %4, align 4
  %65 = load ptr, ptr %6, align 8
  %66 = getelementptr inbounds %struct._zend_array, ptr %65, i32 0, i32 6
  store i32 %64, ptr %66, align 8
  %67 = load ptr, ptr %11, align 8
  ret ptr %67
}