; Function Attrs: nounwind uwtable
define noalias noundef ptr @_zend_new_array(i32 noundef %0) local_unnamed_addr #0 {
  %2 = tail call noalias ptr @_emalloc_56() #27
  store <4 x i32> <i32 1, i32 7, i32 8, i32 -2>, ptr %2, align 4
  %3 = getelementptr inbounds i8, ptr %2, i64 16
  store ptr getelementptr inbounds ([2 x i32], ptr @uninitialized_bucket, i64 1, i64 0), ptr %3, align 8
  %4 = getelementptr inbounds i8, ptr %2, i64 24
  store i32 0, ptr %4, align 8
  %5 = getelementptr inbounds i8, ptr %2, i64 28
  store i32 0, ptr %5, align 4
  %6 = getelementptr inbounds i8, ptr %2, i64 36
  store i32 0, ptr %6, align 4
  %7 = getelementptr inbounds i8, ptr %2, i64 40
  store i64 -9223372036854775808, ptr %7, align 8
  %8 = getelementptr inbounds i8, ptr %2, i64 48
  store ptr @zval_ptr_dtor, ptr %8, align 8
  %9 = icmp ult i32 %0, 9
  br i1 %9, label %18, label %10

10:                                               ; preds = %1
  %11 = icmp ugt i32 %0, 1073741824
  br i1 %11, label %12, label %13

12:                                               ; preds = %10
  tail call void (i32, ptr, ...) @zend_error_noreturn(i32 noundef 1, ptr noundef nonnull @.str, i32 noundef %0, i64 noundef 32, i64 noundef 32) #28
  unreachable

13:                                               ; preds = %10
  %14 = add nsw i32 %0, -1
  %15 = tail call i32 @llvm.ctlz.i32(i32 %14, i1 true), !range !5
  %16 = xor i32 %15, 31
  %17 = shl nuw nsw i32 2, %16
  br label %18

18:                                               ; preds = %1, %13
  %.0 = phi i32 [ %17, %13 ], [ 8, %1 ]
  %19 = getelementptr inbounds i8, ptr %2, i64 32
  store i32 %.0, ptr %19, align 8
  ret ptr %2
}